; Function Attrs: null_pointer_is_valid sspstrong uwtable
define noundef ptr @proto_tree_add_guid(ptr noundef %0, i32 noundef %1, ptr noundef %2, i32 noundef %3, i32 noundef %4, ptr noundef %5) local_unnamed_addr #0 {
  %7 = alloca i32, align 4
  %8 = alloca i32, align 4
  store i32 %4, ptr %8, align 4
  %.not = icmp eq ptr %0, null
  br i1 %.not, label %92, label %9

9:                                                ; preds = %6
  %10 = getelementptr inbounds nuw i8, ptr %0, i64 48
  %11 = load ptr, ptr %10, align 8
  %12 = getelementptr inbounds nuw i8, ptr %11, i64 12
  %13 = load i32, ptr %12, align 4
  %14 = add i32 %13, 1
  store i32 %14, ptr %12, align 4
  %15 = load i32, ptr @gpa_hfinfo.0, align 8
  %16 = freeze i32 %15
  %17 = add i32 %1, -1
  %or.cond.not = icmp ult i32 %17, %16
  br i1 %or.cond.not, label %22, label %18

18:                                               ; preds = %9
  %19 = load i8, ptr @wireshark_abort_on_dissector_bug, align 1, !range !10, !noundef !11
  %20 = trunc nuw i8 %19 to i1
  br i1 %20, label %21, label %22

21:                                               ; preds = %18
  tail call void (ptr, i32, ptr, i64, ptr, ptr, ...) @ws_log_fatal_full(ptr noundef nonnull @.str, i32 noundef 7, ptr noundef nonnull @.str.1, i64 noundef 5173, ptr noundef nonnull @__func__.proto_tree_add_guid, ptr noundef nonnull @.str.2, i32 noundef %1) #37
  unreachable

22:                                               ; preds = %9, %18
  %23 = icmp sgt i32 %1, 0
  %24 = icmp ult i32 %1, %16
  %or.cond42 = and i1 %23, %24
  br i1 %or.cond42, label %26, label %25

25:                                               ; preds = %22
  tail call void (ptr, ...) @proto_report_dissector_bug(ptr noundef nonnull @.str.3, ptr noundef nonnull @.str.1, i32 noundef 5173, ptr noundef nonnull @.str.7, ptr noundef nonnull @.str.5) #37
  unreachable

26:                                               ; preds = %22
  %27 = load ptr, ptr @gpa_hfinfo.2, align 8
  %28 = zext nneg i32 %1 to i64
  %29 = getelementptr ptr, ptr %27, i64 %28
  %30 = load ptr, ptr %29, align 8
  %.not36 = icmp eq ptr %30, null
  br i1 %.not36, label %31, label %32

31:                                               ; preds = %26
  tail call void (ptr, ...) @proto_report_dissector_bug(ptr noundef nonnull @.str.3, ptr noundef nonnull @.str.1, i32 noundef 5173, ptr noundef nonnull @.str.8, ptr noundef nonnull @.str.5) #37
  unreachable

32:                                               ; preds = %26
  %33 = load ptr, ptr %10, align 8
  %34 = getelementptr inbounds nuw i8, ptr %33, i64 12
  %35 = load i32, ptr %34, align 4
  %36 = load i32, ptr getelementptr inbounds nuw (i8, ptr @prefs, i64 232), align 8
  %37 = icmp ugt i32 %35, %36
  br i1 %37, label %38, label %54

38:                                               ; preds = %32
  %39 = load i8, ptr @wireshark_abort_on_too_many_items, align 1, !range !10, !noundef !11
  %40 = trunc nuw i8 %39 to i1
  br i1 %40, label %41, label %44

41:                                               ; preds = %38
  %42 = getelementptr inbounds nuw i8, ptr %30, i64 8
  %43 = load ptr, ptr %42, align 8
  tail call void (ptr, i32, ptr, i64, ptr, ptr, ...) @ws_log_fatal_full(ptr noundef nonnull @.str, i32 noundef 7, ptr noundef nonnull @.str.1, i64 noundef 5173, ptr noundef nonnull @__func__.proto_tree_add_guid, ptr noundef nonnull @.str.12, ptr noundef %43, i32 noundef %36) #37
  unreachable

44:                                               ; preds = %38
  store i32 0, ptr %34, align 4
  %45 = load ptr, ptr %10, align 8
  %46 = getelementptr inbounds nuw i8, ptr %45, i64 16
  %47 = load ptr, ptr %46, align 8
  %48 = getelementptr inbounds nuw i8, ptr %47, i64 408
  %49 = load ptr, ptr %48, align 8
  %50 = getelementptr inbounds nuw i8, ptr %30, i64 8
  %51 = load ptr, ptr %50, align 8
  %52 = load i32, ptr getelementptr inbounds nuw (i8, ptr @prefs, i64 232), align 8
  %53 = tail call noalias ptr (ptr, ptr, ...) @wmem_strdup_printf(ptr noundef %49, ptr noundef nonnull @.str.12, ptr noundef %51, i32 noundef %52)
  tail call void @except_throw(i64 noundef 1, i64 noundef 6, ptr noundef %53) #37
  unreachable

54:                                               ; preds = %32
  %55 = getelementptr inbounds nuw i8, ptr %33, i64 8
  %56 = load i8, ptr %55, align 8, !range !10, !noundef !11
  %57 = trunc nuw i8 %56 to i1
  br i1 %57, label %76, label %58

58:                                               ; preds = %54
  %59 = getelementptr inbounds nuw i8, ptr %0, i64 40
  %60 = load ptr, ptr %59, align 8
  %.not7.i = icmp eq ptr %60, null
  br i1 %.not7.i, label %proto_item_is_hidden.exit.thread, label %proto_item_is_hidden.exit

proto_item_is_hidden.exit:                        ; preds = %58
  %61 = getelementptr inbounds nuw i8, ptr %60, i64 28
  %62 = load i32, ptr %61, align 4
  %63 = and i32 %62, 1
  %.not45 = icmp eq i32 %63, 0
  br i1 %.not45, label %76, label %proto_item_is_hidden.exit.thread

proto_item_is_hidden.exit.thread:                 ; preds = %58, %proto_item_is_hidden.exit
  %64 = getelementptr inbounds nuw i8, ptr %30, i64 56
  %65 = load i32, ptr %64, align 8
  %66 = and i32 %65, -2
  %switch = icmp eq i32 %66, 2
  br i1 %switch, label %76, label %67

67:                                               ; preds = %proto_item_is_hidden.exit.thread
  %68 = getelementptr inbounds nuw i8, ptr %30, i64 16
  %69 = load i32, ptr %68, align 8
  %.not39 = icmp eq i32 %69, 1
  br i1 %.not39, label %70, label %74

70:                                               ; preds = %67
  %71 = getelementptr inbounds nuw i8, ptr %33, i64 9
  %72 = load i8, ptr %71, align 1, !range !10, !noundef !11
  %73 = trunc nuw i8 %72 to i1
  br i1 %73, label %74, label %76

74:                                               ; preds = %70, %67
  %75 = tail call fastcc ptr @proto_tree_add_fake_node(ptr noundef nonnull %0, ptr noundef %30)
  br label %92

76:                                               ; preds = %proto_item_is_hidden.exit.thread, %proto_item_is_hidden.exit, %70, %54
  %77 = getelementptr inbounds nuw i8, ptr %30, i64 16
  %78 = load i32, ptr %77, align 8
  %79 = icmp eq i32 %78, 36
  br i1 %79, label %83, label %80

80:                                               ; preds = %76
  %81 = getelementptr inbounds nuw i8, ptr %30, i64 8
  %82 = load ptr, ptr %81, align 8
  tail call void (ptr, ...) @proto_report_dissector_bug(ptr noundef nonnull @.str.59, ptr noundef nonnull @.str.1, i32 noundef 5175, ptr noundef %82) #37
  unreachable

83:                                               ; preds = %76
  call void @llvm.lifetime.start.p0(i64 4, ptr nonnull %7) #39
  call fastcc void @get_hfi_length(ptr noundef nonnull %30, ptr noundef %2, i32 noundef %3, ptr noundef nonnull %8, ptr noundef nonnull %7, i32 noundef 0)
  %84 = load i32, ptr %7, align 4
  %85 = tail call fastcc ptr @new_field_info(ptr noundef nonnull %0, ptr noundef nonnull %30, ptr noundef %2, i32 noundef %3, i32 noundef %84)
  %86 = tail call fastcc noundef ptr @proto_tree_add_node(ptr noundef nonnull %0, ptr noundef %85)
  call void @llvm.lifetime.end.p0(i64 4, ptr nonnull %7) #39
  %.not.i43 = icmp eq ptr %5, null
  br i1 %.not.i43, label %87, label %proto_tree_set_guid.exit

87:                                               ; preds = %83
  tail call void (ptr, ...) @proto_report_dissector_bug(ptr noundef nonnull @.str.62, ptr noundef nonnull @.str.1, i32 noundef 5226, ptr noundef nonnull @.str.251) #37
  unreachable

proto_tree_set_guid.exit:                         ; preds = %83
  %88 = getelementptr inbounds nuw i8, ptr %86, i64 40
  %89 = load ptr, ptr %88, align 8
  %90 = getelementptr inbounds nuw i8, ptr %89, i64 48
  %91 = load ptr, ptr %90, align 8
  tail call void @fvalue_set_guid(ptr noundef %91, ptr noundef nonnull %5)
  br label %92

92:                                               ; preds = %6, %proto_tree_set_guid.exit, %74
  %.0 = phi ptr [ %86, %proto_tree_set_guid.exit ], [ %75, %74 ], [ null, %6 ]
  ret ptr %.0
}